; Function Attrs: mustprogress nounwind uwtable
define hidden noundef ptr @_ZNK18ModRefBarrierSetC230atomic_cmpxchg_val_at_resolvedER19C2AtomicParseAccessP4NodeS3_PK4Type(ptr noundef nonnull align 8 dereferenceable(8) %0, ptr noundef nonnull align 8 dereferenceable(76) %1, ptr noundef %2, ptr noundef %3, ptr noundef %4) unnamed_addr #0 align 2 {
  %6 = getelementptr inbounds i8, ptr %1, i64 16
  %7 = load i8, ptr %6, align 8
  %8 = and i8 %7, -2
  %or.cond.i.i = icmp eq i8 %8, 12
  br i1 %or.cond.i.i, label %11, label %9

9:                                                ; preds = %5
  %10 = tail call noundef ptr @_ZNK12BarrierSetC230atomic_cmpxchg_val_at_resolvedER19C2AtomicParseAccessP4NodeS3_PK4Type(ptr noundef nonnull align 8 dereferenceable(8) %0, ptr noundef nonnull align 8 dereferenceable(76) %1, ptr noundef %2, ptr noundef %3, ptr noundef %4) #2
  br label %39

11:                                               ; preds = %5
  %12 = getelementptr inbounds i8, ptr %1, i64 56
  %13 = load ptr, ptr %12, align 8
  %14 = getelementptr inbounds i8, ptr %13, i64 40
  %15 = load ptr, ptr %14, align 8
  %16 = getelementptr inbounds i8, ptr %15, i64 8
  %17 = load ptr, ptr %16, align 8
  %18 = load ptr, ptr %17, align 8
  %19 = load ptr, ptr %0, align 8
  %20 = getelementptr inbounds i8, ptr %19, i64 352
  %21 = load ptr, ptr %20, align 8
  tail call void %21(ptr noundef nonnull align 8 dereferenceable(8) %0, ptr noundef nonnull %13, i1 noundef zeroext false, ptr noundef %18, ptr noundef null, ptr noundef null, i32 noundef -1, ptr noundef null, ptr noundef null, ptr noundef %2, i8 noundef zeroext 12) #2
  %22 = tail call noundef ptr @_ZNK12BarrierSetC230atomic_cmpxchg_val_at_resolvedER19C2AtomicParseAccessP4NodeS3_PK4Type(ptr noundef nonnull align 8 dereferenceable(8) %0, ptr noundef nonnull align 8 dereferenceable(76) %1, ptr noundef %2, ptr noundef %3, ptr noundef %4) #2
  %23 = load ptr, ptr %14, align 8
  %24 = getelementptr inbounds i8, ptr %23, i64 8
  %25 = load ptr, ptr %24, align 8
  %26 = load ptr, ptr %25, align 8
  %27 = getelementptr inbounds i8, ptr %1, i64 40
  %28 = load ptr, ptr %27, align 8
  %29 = getelementptr inbounds i8, ptr %1, i64 24
  %30 = load ptr, ptr %29, align 8
  %31 = getelementptr inbounds i8, ptr %1, i64 32
  %32 = load ptr, ptr %31, align 8
  %33 = load ptr, ptr %32, align 8
  %34 = getelementptr inbounds i8, ptr %1, i64 72
  %35 = load i32, ptr %34, align 8
  %36 = load ptr, ptr %0, align 8
  %37 = getelementptr inbounds i8, ptr %36, i64 360
  %38 = load ptr, ptr %37, align 8
  tail call void %38(ptr noundef nonnull align 8 dereferenceable(8) %0, ptr noundef nonnull %13, ptr noundef %26, ptr noundef %28, ptr noundef %30, ptr noundef %33, i32 noundef %35, ptr noundef %3, i8 noundef zeroext 12, i1 noundef zeroext true) #2
  br label %39

39:                                               ; preds = %11, %9
  %.0 = phi ptr [ %22, %11 ], [ %10, %9 ]
  ret ptr %.0
}